target datalayout = "e-m:e-p270:32:32-p271:32:32-p272:64:64-i64:64-i128:128-f80:128-n8:16:32:64-S128"
target triple = "x86_64-pc-linux-gnu"

%struct.reassembly_table = type { ptr, ptr, ptr, ptr, ptr }
%struct.reassembly_table_functions = type { ptr, ptr, ptr, ptr, ptr, ptr }

@proto_register_iso10681.ett = internal global [4 x ptr] [ptr @ett_iso10681, ptr @ett_iso10681_bandwidth_control, ptr @ett_iso10681_fragment, ptr @ett_iso10681_fragments], align 16
@.str.50 = private unnamed_addr constant [18 x i8] c"ISO10681 Protocol\00", align 1
@.str.51 = private unnamed_addr constant [10 x i8] c"ISO 10681\00", align 1
@.str.52 = private unnamed_addr constant [9 x i8] c"iso10681\00", align 1
@proto_iso10681 = internal global i32 0, align 4
@iso10681_handle_flexray = internal global ptr null, align 8
@.str.53 = private unnamed_addr constant [19 x i8] c"flexray.flexrayids\00", align 1
@.str.54 = private unnamed_addr constant [12 x i8] c"FlexRay IDs\00", align 1
@.str.55 = private unnamed_addr constant [98 x i8] c"FlexRay IDs (combined) - 4bit Bus-ID (0 any), 4bit Channel, 16bit Frame-ID, 8bit Cycle (0xff any)\00", align 1
@iso10681_flexray_ids = internal global ptr null, align 8
@.str.56 = private unnamed_addr constant [19 x i8] c"spread_over_cycles\00", align 1
@.str.57 = private unnamed_addr constant [27 x i8] c"Ignore Cycle when matching\00", align 1
@.str.58 = private unnamed_addr constant [74 x i8] c"TP frames are spread over multiple cycles. Cycle is ignored for matching.\00", align 1
@iso10681_spread_over_multiple_cycles = internal global i8 1, align 1
@iso10681_seq_table = internal global ptr null, align 8
@iso10681_frame_table = internal global ptr null, align 8
@iso10681_reassembly_table = internal global %struct.reassembly_table zeroinitializer, align 8
@addresses_reassembly_table_functions = external constant %struct.reassembly_table_functions, align 8
@.str.59 = private unnamed_addr constant [22 x i8] c"iso10681.subdissector\00", align 1
@.str.60 = private unnamed_addr constant [30 x i8] c"ISO10681 next level dissector\00", align 1
@subdissector_table = internal global ptr null, align 8

; Function Attrs: null_pointer_is_valid sspstrong uwtable
define hidden void @proto_register_iso10681() #0 {
  %1 = alloca ptr, align 8
  %2 = alloca ptr, align 8
  call void @llvm.lifetime.start.p0(i64 8, ptr %1) #6
  call void @llvm.lifetime.start.p0(i64 8, ptr %2) #6
  %3 = call i32 @proto_register_protocol(ptr noundef @.str.50, ptr noundef @.str.51, ptr noundef @.str.52)
  store i32 %3, ptr @proto_iso10681, align 4
  %4 = load i32, ptr @proto_iso10681, align 4
  %5 = call ptr @register_dissector(ptr noundef @.str.52, ptr noundef @dissect_iso10681_flexray, i32 noundef %4)
  store ptr %5, ptr @iso10681_handle_flexray, align 8
  %6 = load i32, ptr @proto_iso10681, align 4
  %7 = call ptr @prefs_register_protocol(i32 noundef %6, ptr noundef @proto_reg_handoff_iso10681)
  store ptr %7, ptr %1, align 8
  %8 = load ptr, ptr %1, align 8
  call void @prefs_register_range_preference(ptr noundef %8, ptr noundef @.str.53, ptr noundef @.str.54, ptr noundef @.str.55, ptr noundef @iso10681_flexray_ids, i32 noundef -1)
  %9 = load ptr, ptr %1, align 8
  call void @prefs_register_bool_preference(ptr noundef %9, ptr noundef @.str.56, ptr noundef @.str.57, ptr noundef @.str.58, ptr noundef @iso10681_spread_over_multiple_cycles)
  %10 = load i32, ptr @proto_iso10681, align 4
  call void @proto_register_field_array(i32 noundef %10, ptr noundef @proto_register_iso10681.hf, i32 noundef 24)
  call void @proto_register_subtree_array(ptr noundef @proto_register_iso10681.ett, i32 noundef 4)
  %11 = load i32, ptr @proto_iso10681, align 4
  %12 = call ptr @expert_register_protocol(i32 noundef %11)
  store ptr %12, ptr %2, align 8
  %13 = load ptr, ptr %2, align 8
  call void @expert_register_field_array(ptr noundef %13, ptr noundef @proto_register_iso10681.ei, i32 noundef 1)
  %14 = call ptr @wmem_epan_scope()
  %15 = call ptr @wmem_file_scope()
  %16 = call noalias ptr @wmem_map_new_autoreset(ptr noundef %14, ptr noundef %15, ptr noundef @g_direct_hash, ptr noundef @g_direct_equal)
  store ptr %16, ptr @iso10681_seq_table, align 8
  %17 = call ptr @wmem_epan_scope()
  %18 = call ptr @wmem_file_scope()
  %19 = call noalias ptr @wmem_map_new_autoreset(ptr noundef %17, ptr noundef %18, ptr noundef @g_direct_hash, ptr noundef @g_direct_equal)
  store ptr %19, ptr @iso10681_frame_table, align 8
  call void @reassembly_table_register(ptr noundef @iso10681_reassembly_table, ptr noundef @addresses_reassembly_table_functions)
  %20 = load i32, ptr @proto_iso10681, align 4
  %21 = call ptr @register_decode_as_next_proto(i32 noundef %20, ptr noundef @.str.59, ptr noundef @.str.60, ptr noundef null)
  store ptr %21, ptr @subdissector_table, align 8
  call void @llvm.lifetime.end.p0(i64 8, ptr %2) #6
  call void @llvm.lifetime.end.p0(i64 8, ptr %1) #6
  ret void
}