; Function Attrs: null_pointer_is_valid sspstrong uwtable
define hidden void @proto_register_iso10681() local_unnamed_addr #0 {
  %1 = tail call i32 @proto_register_protocol(ptr noundef nonnull @.str.50, ptr noundef nonnull @.str.51, ptr noundef nonnull @.str.52)
  store i32 %1, ptr @proto_iso10681, align 4
  %2 = tail call ptr @register_dissector(ptr noundef nonnull @.str.52, ptr noundef nonnull @dissect_iso10681_flexray, i32 noundef %1)
  store ptr %2, ptr @iso10681_handle_flexray, align 8
  %3 = load i32, ptr @proto_iso10681, align 4
  %4 = tail call ptr @prefs_register_protocol(i32 noundef %3, ptr noundef nonnull @proto_reg_handoff_iso10681)
  tail call void @prefs_register_range_preference(ptr noundef %4, ptr noundef nonnull @.str.53, ptr noundef nonnull @.str.54, ptr noundef nonnull @.str.55, ptr noundef nonnull @iso10681_flexray_ids, i32 noundef -1)
  tail call void @prefs_register_bool_preference(ptr noundef %4, ptr noundef nonnull @.str.56, ptr noundef nonnull @.str.57, ptr noundef nonnull @.str.58, ptr noundef nonnull @iso10681_spread_over_multiple_cycles)
  %5 = load i32, ptr @proto_iso10681, align 4
  tail call void @proto_register_field_array(i32 noundef %5, ptr noundef nonnull @proto_register_iso10681.hf, i32 noundef 24)
  tail call void @proto_register_subtree_array(ptr noundef nonnull @proto_register_iso10681.ett, i32 noundef 4)
  %6 = load i32, ptr @proto_iso10681, align 4
  %7 = tail call ptr @expert_register_protocol(i32 noundef %6)
  tail call void @expert_register_field_array(ptr noundef %7, ptr noundef nonnull @proto_register_iso10681.ei, i32 noundef 1)
  %8 = tail call ptr @wmem_epan_scope()
  %9 = tail call ptr @wmem_file_scope()
  %10 = tail call noalias ptr @wmem_map_new_autoreset(ptr noundef %8, ptr noundef %9, ptr noundef nonnull @g_direct_hash, ptr noundef nonnull @g_direct_equal)
  store ptr %10, ptr @iso10681_seq_table, align 8
  %11 = tail call ptr @wmem_epan_scope()
  %12 = tail call ptr @wmem_file_scope()
  %13 = tail call noalias ptr @wmem_map_new_autoreset(ptr noundef %11, ptr noundef %12, ptr noundef nonnull @g_direct_hash, ptr noundef nonnull @g_direct_equal)
  store ptr %13, ptr @iso10681_frame_table, align 8
  tail call void @reassembly_table_register(ptr noundef nonnull @iso10681_reassembly_table, ptr noundef nonnull @addresses_reassembly_table_functions)
  %14 = load i32, ptr @proto_iso10681, align 4
  %15 = tail call ptr @register_decode_as_next_proto(i32 noundef %14, ptr noundef nonnull @.str.59, ptr noundef nonnull @.str.60, ptr noundef null)
  store ptr %15, ptr @subdissector_table, align 8
  ret void
}